target datalayout = "e-m:e-p270:32:32-p271:32:32-p272:64:64-i64:64-i128:128-f80:128-n8:16:32:64-S128"
target triple = "x86_64-pc-linux-gnu"

%struct.CMajEnv = type { ptr, i32, ptr, ptr, ptr, ptr, ptr, ptr, i32 }

; Function Attrs: nounwind uwtable
define void @deleteCMajEnv(ptr noundef %0) #0 {
  %2 = alloca ptr, align 8
  store ptr %0, ptr %2, align 8, !tbaa !22
  %3 = load ptr, ptr %2, align 8, !tbaa !22
  %4 = getelementptr inbounds nuw %struct.CMajEnv, ptr %3, i32 0, i32 0
  %5 = load ptr, ptr %4, align 8, !tbaa !26
  %6 = getelementptr inbounds ptr, ptr %5, i64 0
  %7 = load ptr, ptr %6, align 8, !tbaa !3
  call void @free(ptr noundef %7) #12
  %8 = load ptr, ptr %2, align 8, !tbaa !22
  %9 = getelementptr inbounds nuw %struct.CMajEnv, ptr %8, i32 0, i32 0
  %10 = load ptr, ptr %9, align 8, !tbaa !26
  call void @free(ptr noundef %10) #12
  %11 = load ptr, ptr %2, align 8, !tbaa !22
  %12 = getelementptr inbounds nuw %struct.CMajEnv, ptr %11, i32 0, i32 2
  %13 = load ptr, ptr %12, align 8, !tbaa !33
  call void @free(ptr noundef %13) #12
  %14 = load ptr, ptr %2, align 8, !tbaa !22
  %15 = getelementptr inbounds nuw %struct.CMajEnv, ptr %14, i32 0, i32 3
  %16 = load ptr, ptr %15, align 8, !tbaa !34
  call void @free(ptr noundef %16) #12
  %17 = load ptr, ptr %2, align 8, !tbaa !22
  %18 = getelementptr inbounds nuw %struct.CMajEnv, ptr %17, i32 0, i32 4
  %19 = load ptr, ptr %18, align 8, !tbaa !35
  call void @free(ptr noundef %19) #12
  %20 = load ptr, ptr %2, align 8, !tbaa !22
  %21 = getelementptr inbounds nuw %struct.CMajEnv, ptr %20, i32 0, i32 5
  %22 = load ptr, ptr %21, align 8, !tbaa !37
  call void @free(ptr noundef %22) #12
  %23 = load ptr, ptr %2, align 8, !tbaa !22
  call void @free(ptr noundef %23) #12
  ret void
}