; Function Attrs: mustprogress nounwind willreturn uwtable
define void @deleteCMajEnv(ptr noundef captures(none) %0) local_unnamed_addr #5 {
  %2 = load ptr, ptr %0, align 8, !tbaa !21
  %3 = load ptr, ptr %2, align 8, !tbaa !8
  tail call void @free(ptr noundef %3) #17
  %4 = load ptr, ptr %0, align 8, !tbaa !21
  tail call void @free(ptr noundef %4) #17
  %5 = getelementptr inbounds nuw i8, ptr %0, i64 16
  %6 = load ptr, ptr %5, align 8, !tbaa !27
  tail call void @free(ptr noundef %6) #17
  %7 = getelementptr inbounds nuw i8, ptr %0, i64 24
  %8 = load ptr, ptr %7, align 8, !tbaa !28
  tail call void @free(ptr noundef %8) #17
  %9 = getelementptr inbounds nuw i8, ptr %0, i64 32
  %10 = load ptr, ptr %9, align 8, !tbaa !29
  tail call void @free(ptr noundef %10) #17
  %11 = getelementptr inbounds nuw i8, ptr %0, i64 40
  %12 = load ptr, ptr %11, align 8, !tbaa !30
  tail call void @free(ptr noundef %12) #17
  tail call void @free(ptr noundef %0) #17
  ret void
}